target datalayout = "e-m:e-p270:32:32-p271:32:32-p272:64:64-i64:64-i128:128-f80:128-n8:16:32:64-S128"
target triple = "x86_64-pc-linux-gnu"

%struct.lv_ll_t = type { i32, ptr, ptr }
%struct._lv_display_t = type { i32, i32, i32, i32, i32, i32, i32, ptr, ptr, ptr, ptr, ptr, i32, i32, i8, i32, i16, i32, [32 x %struct.lv_area_t], [32 x i8], i32, i32, %struct.lv_ll_t, %struct._lv_draw_buf_t, %struct._lv_draw_buf_t, ptr, ptr, ptr, ptr, ptr, ptr, ptr, ptr, ptr, ptr, i32, i8, ptr, ptr, %struct.lv_event_list_t, i8, ptr, ptr, i32, %struct.lv_area_t }
%struct._lv_draw_buf_t = type { %struct.lv_image_header_t, i32, ptr, ptr, ptr }
%struct.lv_image_header_t = type <{ i64, i32 }>
%struct.lv_event_list_t = type { %struct._lv_array_t, i8 }
%struct._lv_array_t = type { ptr, i32, i32, i32, i8 }
%struct.lv_area_t = type { i32, i32, i32, i32 }
%struct._lv_event_dsc_t = type { ptr, ptr, i32 }

; Function Attrs: nounwind uwtable
define zeroext i1 @lv_display_delete_event(ptr noundef %0, i32 noundef %1) #0 {
  %3 = alloca ptr, align 8
  %4 = alloca i32, align 4
  store ptr %0, ptr %3, align 8, !tbaa !7
  store i32 %1, ptr %4, align 4, !tbaa !3
  br label %5

5:                                                ; preds = %2
  %6 = load ptr, ptr %3, align 8, !tbaa !7
  %7 = icmp ne ptr %6, null
  br i1 %7, label %12, label %8

8:                                                ; preds = %5
  br label %9

9:                                                ; preds = %8
  br label %10

10:                                               ; preds = %9
  br label %11

11:                                               ; preds = %10, %11
  br label %11

12:                                               ; preds = %5
  br label %13

13:                                               ; preds = %12
  %14 = load ptr, ptr %3, align 8, !tbaa !7
  %15 = getelementptr inbounds nuw %struct._lv_display_t, ptr %14, i32 0, i32 39
  %16 = load i32, ptr %4, align 4, !tbaa !3
  %17 = call zeroext i1 @lv_event_remove(ptr noundef %15, i32 noundef %16)
  ret i1 %17
}

; Function Attrs: nounwind uwtable
define ptr @lv_display_get_event_dsc(ptr noundef %0, i32 noundef %1) #0 {
  %3 = alloca ptr, align 8
  %4 = alloca i32, align 4
  store ptr %0, ptr %3, align 8, !tbaa !7
  store i32 %1, ptr %4, align 4, !tbaa !3
  br label %5

5:                                                ; preds = %2
  %6 = load ptr, ptr %3, align 8, !tbaa !7
  %7 = icmp ne ptr %6, null
  br i1 %7, label %12, label %8

8:                                                ; preds = %5
  br label %9

9:                                                ; preds = %8
  br label %10

10:                                               ; preds = %9
  br label %11

11:                                               ; preds = %10, %11
  br label %11

12:                                               ; preds = %5
  br label %13

13:                                               ; preds = %12
  %14 = load ptr, ptr %3, align 8, !tbaa !7
  %15 = getelementptr inbounds nuw %struct._lv_display_t, ptr %14, i32 0, i32 39
  %16 = load i32, ptr %4, align 4, !tbaa !3
  %17 = call ptr @lv_event_get_dsc(ptr noundef %15, i32 noundef %16)
  ret ptr %17
}

; Function Attrs: nounwind uwtable
define i32 @lv_display_get_event_count(ptr noundef %0) #0 {
  %2 = alloca ptr, align 8
  store ptr %0, ptr %2, align 8, !tbaa !7
  br label %3

3:                                                ; preds = %1
  %4 = load ptr, ptr %2, align 8, !tbaa !7
  %5 = icmp ne ptr %4, null
  br i1 %5, label %10, label %6

6:                                                ; preds = %3
  br label %7

7:                                                ; preds = %6
  br label %8

8:                                                ; preds = %7
  br label %9

9:                                                ; preds = %8, %9
  br label %9

10:                                               ; preds = %3
  br label %11

11:                                               ; preds = %10
  %12 = load ptr, ptr %2, align 8, !tbaa !7
  %13 = getelementptr inbounds nuw %struct._lv_display_t, ptr %12, i32 0, i32 39
  %14 = call i32 @lv_event_get_count(ptr noundef %13)
  ret i32 %14
}

; Function Attrs: nounwind uwtable
define i32 @lv_display_remove_event_cb_with_user_data(ptr noundef %0, ptr noundef %1, ptr noundef %2) #0 {
  %4 = alloca ptr, align 8
  %5 = alloca ptr, align 8
  %6 = alloca ptr, align 8
  %7 = alloca i32, align 4
  %8 = alloca i32, align 4
  %9 = alloca i32, align 4
  %10 = alloca ptr, align 8
  store ptr %0, ptr %4, align 8, !tbaa !7
  store ptr %1, ptr %5, align 8, !tbaa !7
  store ptr %2, ptr %6, align 8, !tbaa !7
  br label %11

11:                                               ; preds = %3
  %12 = load ptr, ptr %4, align 8, !tbaa !7
  %13 = icmp ne ptr %12, null
  br i1 %13, label %18, label %14

14:                                               ; preds = %11
  br label %15

15:                                               ; preds = %14
  br label %16

16:                                               ; preds = %15
  br label %17

17:                                               ; preds = %16, %17
  br label %17

18:                                               ; preds = %11
  br label %19

19:                                               ; preds = %18
  call void @llvm.lifetime.start.p0(i64 4, ptr %7) #5
  %20 = load ptr, ptr %4, align 8, !tbaa !7
  %21 = call i32 @lv_display_get_event_count(ptr noundef %20)
  store i32 %21, ptr %7, align 4, !tbaa !3
  call void @llvm.lifetime.start.p0(i64 4, ptr %8) #5
  store i32 0, ptr %8, align 4, !tbaa !3
  call void @llvm.lifetime.start.p0(i64 4, ptr %9) #5
  %22 = load i32, ptr %7, align 4, !tbaa !3
  %23 = sub i32 %22, 1
  store i32 %23, ptr %9, align 4, !tbaa !3
  br label %24

24:                                               ; preds = %52, %19
  %25 = load i32, ptr %9, align 4, !tbaa !3
  %26 = icmp sge i32 %25, 0
  br i1 %26, label %27, label %55

27:                                               ; preds = %24
  call void @llvm.lifetime.start.p0(i64 8, ptr %10) #5
  %28 = load ptr, ptr %4, align 8, !tbaa !7
  %29 = load i32, ptr %9, align 4, !tbaa !3
  %30 = call ptr @lv_display_get_event_dsc(ptr noundef %28, i32 noundef %29)
  store ptr %30, ptr %10, align 8, !tbaa !7
  %31 = load ptr, ptr %10, align 8, !tbaa !7
  %32 = icmp ne ptr %31, null
  br i1 %32, label %33, label %51

33:                                               ; preds = %27
  %34 = load ptr, ptr %10, align 8, !tbaa !7
  %35 = getelementptr inbounds nuw %struct._lv_event_dsc_t, ptr %34, i32 0, i32 0
  %36 = load ptr, ptr %35, align 8, !tbaa !80
  %37 = load ptr, ptr %5, align 8, !tbaa !7
  %38 = icmp eq ptr %36, %37
  br i1 %38, label %39, label %51

39:                                               ; preds = %33
  %40 = load ptr, ptr %10, align 8, !tbaa !7
  %41 = getelementptr inbounds nuw %struct._lv_event_dsc_t, ptr %40, i32 0, i32 1
  %42 = load ptr, ptr %41, align 8, !tbaa !82
  %43 = load ptr, ptr %6, align 8, !tbaa !7
  %44 = icmp eq ptr %42, %43
  br i1 %44, label %45, label %51

45:                                               ; preds = %39
  %46 = load ptr, ptr %4, align 8, !tbaa !7
  %47 = load i32, ptr %9, align 4, !tbaa !3
  %48 = call zeroext i1 @lv_display_delete_event(ptr noundef %46, i32 noundef %47)
  %49 = load i32, ptr %8, align 4, !tbaa !3
  %50 = add i32 %49, 1
  store i32 %50, ptr %8, align 4, !tbaa !3
  br label %51

51:                                               ; preds = %45, %39, %33, %27
  call void @llvm.lifetime.end.p0(i64 8, ptr %10) #5
  br label %52

52:                                               ; preds = %51
  %53 = load i32, ptr %9, align 4, !tbaa !3
  %54 = add nsw i32 %53, -1
  store i32 %54, ptr %9, align 4, !tbaa !3
  br label %24, !llvm.loop !83

55:                                               ; preds = %24
  %56 = load i32, ptr %8, align 4, !tbaa !3
  call void @llvm.lifetime.end.p0(i64 4, ptr %9) #5
  call void @llvm.lifetime.end.p0(i64 4, ptr %8) #5
  call void @llvm.lifetime.end.p0(i64 4, ptr %7) #5
  ret i32 %56
}