; Function Attrs: nounwind uwtable
define i32 @lv_display_remove_event_cb_with_user_data(ptr noundef %0, ptr noundef readnone %1, ptr noundef readnone %2) local_unnamed_addr #0 {
  %.not = icmp eq ptr %0, null
  br i1 %.not, label %.preheader, label %lv_display_get_event_count.exit

.preheader:                                       ; preds = %3, %.preheader
  br label %.preheader

lv_display_get_event_count.exit:                  ; preds = %3
  %4 = getelementptr inbounds nuw i8, ptr %0, i64 856
  %5 = tail call i32 @lv_event_get_count(ptr noundef nonnull %4) #13
  %.01523 = add i32 %5, -1
  %6 = icmp sgt i32 %.01523, -1
  br i1 %6, label %lv_display_get_event_dsc.exit, label %._crit_edge

lv_display_get_event_dsc.exit:                    ; preds = %lv_display_get_event_count.exit, %17
  %.01525 = phi i32 [ %.015, %17 ], [ %.01523, %lv_display_get_event_count.exit ]
  %.024 = phi i32 [ %.1, %17 ], [ 0, %lv_display_get_event_count.exit ]
  %7 = tail call ptr @lv_event_get_dsc(ptr noundef nonnull %4, i32 noundef %.01525) #13
  %.not18 = icmp eq ptr %7, null
  br i1 %.not18, label %17, label %8

8:                                                ; preds = %lv_display_get_event_dsc.exit
  %9 = load ptr, ptr %7, align 8, !tbaa !75
  %10 = icmp eq ptr %9, %1
  br i1 %10, label %11, label %17

11:                                               ; preds = %8
  %12 = getelementptr inbounds nuw i8, ptr %7, i64 8
  %13 = load ptr, ptr %12, align 8, !tbaa !77
  %14 = icmp eq ptr %13, %2
  br i1 %14, label %lv_display_delete_event.exit, label %17

lv_display_delete_event.exit:                     ; preds = %11
  %15 = tail call zeroext i1 @lv_event_remove(ptr noundef nonnull %4, i32 noundef %.01525) #13
  %16 = add i32 %.024, 1
  br label %17

17:                                               ; preds = %lv_display_delete_event.exit, %11, %8, %lv_display_get_event_dsc.exit
  %.1 = phi i32 [ %16, %lv_display_delete_event.exit ], [ %.024, %11 ], [ %.024, %8 ], [ %.024, %lv_display_get_event_dsc.exit ]
  %.015 = add nsw i32 %.01525, -1
  %18 = icmp sgt i32 %.01525, 0
  br i1 %18, label %lv_display_get_event_dsc.exit, label %._crit_edge, !llvm.loop !78

._crit_edge:                                      ; preds = %17, %lv_display_get_event_count.exit
  %.0.lcssa = phi i32 [ 0, %lv_display_get_event_count.exit ], [ %.1, %17 ]
  ret i32 %.0.lcssa
}